(iplayers
Pitcher
p0
(dp1
S'last_processed_date'
p2
NsS'total_singles'
p3
I77493
sS'total_at_bats'
p4
F442616.0
sS'snapshots'
p5
(dp6
S'0'
p7
(iplayers
Snapshot
p8
(dp9
S'total_runs'
p10
I0
sS'total_doubles'
p11
I0
sS'total_dp_ops'
p12
I0
sS'total_home_runs'
p13
I0
sg3
I0
sg4
F1.0
sS'total_triples'
p14
I0
sS'total_walks'
p15
I0
sS'total_so'
p16
I0
sS'total_dp'
p17
I0
sS'total_hits'
p18
I0
sS'total_rbi'
p19
I0
sS'total_hbp'
p20
I0
sS'total_games'
p21
I0
sS'total_sac_fly'
p22
I0
sbssg15
I45062
sS'id'
p23
S'PITCHER'
p24
sS'conn'
p25
Nsg19
I0
sS'ln'
p26
Nsg13
I14450
sg17
I12157
sg20
I4874
sS'start_date'
p27
S'090405'
p28
sg10
I61330
sS'total_ER'
p29
I57646
sS'end_date'
p30
S'091001'
p31
sg12
I157297
sg16
I84202
sg18
I118921
sg11
I25079
sS'fn'
p32
Nsg22
I3758
sg14
I1899
sg21
I500000
sS'atbats_raw'
p33
NsS'position'
p34
g24
sb.