(dp0
S'C'
p1
(iplayers
Batter
p2
(dp3
S'last_processed_date'
p4
NsS'total_singles'
p5
I2964
sS'total_at_bats'
p6
F17928.0
sS'snapshots'
p7
(dp8
S'0'
p9
(iplayers
Snapshot
p10
(dp11
S'total_runs'
p12
I0
sS'total_doubles'
p13
I0
sS'total_home_runs'
p14
I0
sg5
I0
sg6
F1.0
sS'total_triples'
p15
I0
sS'total_walks'
p16
I0
sS'total_so'
p17
I0
sS'total_hits'
p18
I0
sS'total_rbi'
p19
I0
sS'total_hbp'
p20
I0
sS'total_games'
p21
I0
sS'total_sac_fly'
p22
I0
sbssg16
I1597
sS'id'
p23
g1
sS'conn'
p24
Nsg19
I0
sS'ln'
p25
Nsg14
I539
sS'total_dp'
p26
I450
sg20
I233
sS'start_date'
p27
S'090405'
p28
sg12
I2416
sS'total_ER'
p29
I2338
sS'end_date'
p30
S'091001'
p31
sS'total_dp_ops'
p32
I6463
sg17
I3444
sg18
I4444
sg13
I920
sS'fn'
p33
Nsg22
I153
sg15
I21
sg21
I20000
sS'atbats_raw'
p34
NsS'position'
p35
S'X'
p36
sbsS'SS'
p37
(iplayers
Batter
p38
(dp39
g4
Nsg5
I3611
sg6
F17881.0
sg7
(dp40
g9
(iplayers
Snapshot
p41
(dp42
g12
I0
sg13
I0
sg14
I0
sg5
I0
sg6
F1.0
sg15
I0
sg16
I0
sg17
I0
sg18
I0
sg19
I0
sg20
I0
sg21
I0
sg22
I0
sbssg16
I1583
sg23
g37
sg24
Nsg19
I0
sg25
Nsg14
I313
sg26
I422
sg20
I200
sg27
g28
sg12
I1982
sg29
I1804
sg30
g31
sg32
I5758
sg17
I2682
sg18
I5068
sg13
I976
sg33
Nsg22
I130
sg15
I168
sg21
I20000
sg34
Nsg35
g36
sbsS'OF'
p43
(iplayers
Batter
p44
(dp45
g4
Nsg5
I3336
sg6
F18164.0
sg7
(dp46
g9
(iplayers
Snapshot
p47
(dp48
g12
I0
sg13
I0
sg14
I0
sg5
I0
sg6
F1.0
sg15
I0
sg16
I0
sg17
I0
sg18
I0
sg19
I0
sg20
I0
sg21
I0
sg22
I0
sbssg16
I1410
sg23
g43
sg24
Nsg19
I0
sg25
Nsg14
I566
sg26
I534
sg20
I214
sg27
g28
sg12
I2419
sg29
I2250
sg30
g31
sg32
I6156
sg17
I3095
sg18
I5008
sg13
I1008
sg33
Nsg22
I166
sg15
I98
sg21
I20000
sg34
Nsg35
g36
sbsS'P'
p49
(iplayers
Batter
p50
(dp51
g4
Nsg5
I1915
sg6
F17105.0
sg7
(dp52
g9
(iplayers
Snapshot
p53
(dp54
g12
I0
sg13
I0
sg14
I0
sg5
I0
sg6
F1.0
sg15
I0
sg16
I0
sg17
I0
sg18
I0
sg19
I0
sg20
I0
sg21
I0
sg22
I0
sbssg16
I623
sg23
g49
sg24
Nsg19
I0
sg25
Nsg14
I98
sg26
I228
sg20
I15
sg27
g28
sg12
I1065
sg29
I1004
sg30
g31
sg32
I7337
sg17
I6659
sg18
I2487
sg13
I455
sg33
Nsg22
I24
sg15
I19
sg21
I20000
sg34
Nsg35
g36
sbsS'1B'
p55
(iplayers
Batter
p56
(dp57
g4
Nsg5
I2952
sg6
F17419.0
sg7
(dp58
g9
(iplayers
Snapshot
p59
(dp60
g12
I0
sg13
I0
sg14
I0
sg5
I0
sg6
F1.0
sg15
I0
sg16
I0
sg17
I0
sg18
I0
sg19
I0
sg20
I0
sg21
I0
sg22
I0
sbssg16
I2202
sg23
g55
sg24
Nsg19
I0
sg25
Nsg14
I770
sg26
I525
sg20
I235
sg27
g28
sg12
I2931
sg29
I2783
sg30
g31
sg32
I6656
sg17
I2931
sg18
I4725
sg13
I966
sg33
Nsg22
I141
sg15
I37
sg21
I20000
sg34
Nsg35
g36
sbsS'2B'
p61
(iplayers
Batter
p62
(dp63
g4
Nsg5
I3359
sg6
F17845.0
sg7
(dp64
g9
(iplayers
Snapshot
p65
(dp66
g12
I0
sg13
I0
sg14
I0
sg5
I0
sg6
F1.0
sg15
I0
sg16
I0
sg17
I0
sg18
I0
sg19
I0
sg20
I0
sg21
I0
sg22
I0
sbssg16
I1703
sg23
g61
sg24
Nsg19
I0
sg25
Nsg14
I322
sg26
I406
sg20
I167
sg27
g28
sg12
I2070
sg29
I1861
sg30
g31
sg32
I5646
sg17
I2751
sg18
I4992
sg13
I1175
sg33
Nsg22
I168
sg15
I136
sg21
I20000
sg34
Nsg35
g36
sbsg36
(iplayers
Batter
p67
(dp68
g4
Nsg5
I3168
sg6
F17921.0
sg7
(dp69
g9
(iplayers
Snapshot
p70
(dp71
g12
I0
sg13
I0
sg14
I0
sg5
I0
sg6
F1.0
sg15
I0
sg16
I0
sg17
I0
sg18
I0
sg19
I0
sg20
I0
sg21
I0
sg22
I0
sbssg16
I1660
sg23
g36
sg24
Nsg19
I0
sg25
Nsg14
I544
sg26
I548
sg20
I177
sg27
g28
sg12
I2278
sg29
I2103
sg30
g31
sg32
I6328
sg17
I3309
sg18
I4672
sg13
I879
sg33
Nsg22
I106
sg15
I81
sg21
I20000
sg34
Nsg35
g36
sbsS'3B'
p72
(iplayers
Batter
p73
(dp74
g4
Nsg5
I3125
sg6
F17580.0
sg7
(dp75
g9
(iplayers
Snapshot
p76
(dp77
g12
I0
sg13
I0
sg14
I0
sg5
I0
sg6
F1.0
sg15
I0
sg16
I0
sg17
I0
sg18
I0
sg19
I0
sg20
I0
sg21
I0
sg22
I0
sbssg16
I2007
sg23
g72
sg24
Nsg19
I0
sg25
Nsg14
I678
sg26
I415
sg20
I177
sg27
g28
sg12
I2873
sg29
I2638
sg30
g31
sg32
I6618
sg17
I3472
sg18
I4900
sg13
I1057
sg33
Nsg22
I206
sg15
I40
sg21
I20000
sg34
Nsg35
g36
sbs.